target datalayout = "e-m:e-p270:32:32-p271:32:32-p272:64:64-i64:64-i128:128-f80:128-n8:16:32:64-S128"
target triple = "x86_64-pc-linux-gnu"

%struct.VP8LMultipliers = type { i8, i8, i8 }
%struct.__loadu_si128 = type { <2 x i64> }
%struct.__storeu_si128 = type { <2 x i64> }

; Function Attrs: alwaysinline nounwind uwtable
define internal <2 x i64> @_mm_set_epi32(i32 noundef %0, i32 noundef %1, i32 noundef %2, i32 noundef %3) #3 {
  %5 = alloca i32, align 4
  %6 = alloca i32, align 4
  %7 = alloca i32, align 4
  %8 = alloca i32, align 4
  %9 = alloca <4 x i32>, align 16
  store i32 %0, ptr %5, align 4, !tbaa !9
  store i32 %1, ptr %6, align 4, !tbaa !9
  store i32 %2, ptr %7, align 4, !tbaa !9
  store i32 %3, ptr %8, align 4, !tbaa !9
  %10 = load i32, ptr %8, align 4, !tbaa !9
  %11 = insertelement <4 x i32> poison, i32 %10, i32 0
  %12 = load i32, ptr %7, align 4, !tbaa !9
  %13 = insertelement <4 x i32> %11, i32 %12, i32 1
  %14 = load i32, ptr %6, align 4, !tbaa !9
  %15 = insertelement <4 x i32> %13, i32 %14, i32 2
  %16 = load i32, ptr %5, align 4, !tbaa !9
  %17 = insertelement <4 x i32> %15, i32 %16, i32 3
  store <4 x i32> %17, ptr %9, align 16, !tbaa !11
  %18 = load <4 x i32>, ptr %9, align 16, !tbaa !11
  %19 = bitcast <4 x i32> %18 to <2 x i64>
  ret <2 x i64> %19
}

; Function Attrs: alwaysinline nounwind uwtable
define internal void @_mm_storeu_si128(ptr noundef %0, <2 x i64> noundef %1) #3 {
  %3 = alloca ptr, align 8
  %4 = alloca <2 x i64>, align 16
  store ptr %0, ptr %3, align 8, !tbaa !3
  store <2 x i64> %1, ptr %4, align 16, !tbaa !11
  %5 = load <2 x i64>, ptr %4, align 16, !tbaa !11
  %6 = load ptr, ptr %3, align 8, !tbaa !3
  %7 = getelementptr inbounds nuw %struct.__storeu_si128, ptr %6, i32 0, i32 0
  store <2 x i64> %5, ptr %7, align 1, !tbaa !11
  ret void
}

; Function Attrs: alwaysinline nounwind uwtable
define internal <2 x i64> @_mm_sub_epi8(<2 x i64> noundef %0, <2 x i64> noundef %1) #3 {
  %3 = alloca <2 x i64>, align 16
  %4 = alloca <2 x i64>, align 16
  store <2 x i64> %0, ptr %3, align 16, !tbaa !11
  store <2 x i64> %1, ptr %4, align 16, !tbaa !11
  %5 = load <2 x i64>, ptr %3, align 16, !tbaa !11
  %6 = bitcast <2 x i64> %5 to <16 x i8>
  %7 = load <2 x i64>, ptr %4, align 16, !tbaa !11
  %8 = bitcast <2 x i64> %7 to <16 x i8>
  %9 = sub <16 x i8> %6, %8
  %10 = bitcast <16 x i8> %9 to <2 x i64>
  ret <2 x i64> %10
}

; Function Attrs: alwaysinline nounwind uwtable
define internal <2 x i64> @_mm_add_epi8(<2 x i64> noundef %0, <2 x i64> noundef %1) #3 {
  %3 = alloca <2 x i64>, align 16
  %4 = alloca <2 x i64>, align 16
  store <2 x i64> %0, ptr %3, align 16, !tbaa !11
  store <2 x i64> %1, ptr %4, align 16, !tbaa !11
  %5 = load <2 x i64>, ptr %3, align 16, !tbaa !11
  %6 = bitcast <2 x i64> %5 to <16 x i8>
  %7 = load <2 x i64>, ptr %4, align 16, !tbaa !11
  %8 = bitcast <2 x i64> %7 to <16 x i8>
  %9 = add <16 x i8> %6, %8
  %10 = bitcast <16 x i8> %9 to <2 x i64>
  ret <2 x i64> %10
}

; Function Attrs: alwaysinline nounwind uwtable
define internal <2 x i64> @_mm_srli_epi32(<2 x i64> noundef %0, i32 noundef %1) #3 {
  %3 = alloca <2 x i64>, align 16
  %4 = alloca i32, align 4
  store <2 x i64> %0, ptr %3, align 16, !tbaa !11
  store i32 %1, ptr %4, align 4, !tbaa !9
  %5 = load <2 x i64>, ptr %3, align 16, !tbaa !11
  %6 = bitcast <2 x i64> %5 to <4 x i32>
  %7 = load i32, ptr %4, align 4, !tbaa !9
  %8 = call <4 x i32> @llvm.x86.sse2.psrli.d(<4 x i32> %6, i32 %7)
  %9 = bitcast <4 x i32> %8 to <2 x i64>
  ret <2 x i64> %9
}

; Function Attrs: alwaysinline nounwind uwtable
define internal <2 x i64> @_mm_slli_epi16(<2 x i64> noundef %0, i32 noundef %1) #3 {
  %3 = alloca <2 x i64>, align 16
  %4 = alloca i32, align 4
  store <2 x i64> %0, ptr %3, align 16, !tbaa !11
  store i32 %1, ptr %4, align 4, !tbaa !9
  %5 = load <2 x i64>, ptr %3, align 16, !tbaa !11
  %6 = bitcast <2 x i64> %5 to <8 x i16>
  %7 = load i32, ptr %4, align 4, !tbaa !9
  %8 = call <8 x i16> @llvm.x86.sse2.pslli.w(<8 x i16> %6, i32 %7)
  %9 = bitcast <8 x i16> %8 to <2 x i64>
  ret <2 x i64> %9
}

; Function Attrs: alwaysinline nounwind uwtable
define internal <2 x i64> @_mm_mulhi_epi16(<2 x i64> noundef %0, <2 x i64> noundef %1) #3 {
  %3 = alloca <2 x i64>, align 16
  %4 = alloca <2 x i64>, align 16
  store <2 x i64> %0, ptr %3, align 16, !tbaa !11
  store <2 x i64> %1, ptr %4, align 16, !tbaa !11
  %5 = load <2 x i64>, ptr %3, align 16, !tbaa !11
  %6 = bitcast <2 x i64> %5 to <8 x i16>
  %7 = load <2 x i64>, ptr %4, align 16, !tbaa !11
  %8 = bitcast <2 x i64> %7 to <8 x i16>
  %9 = call <8 x i16> @llvm.x86.sse2.pmulh.w(<8 x i16> %6, <8 x i16> %8)
  %10 = bitcast <8 x i16> %9 to <2 x i64>
  ret <2 x i64> %10
}

; Function Attrs: alwaysinline nounwind uwtable
define internal <2 x i64> @_mm_and_si128(<2 x i64> noundef %0, <2 x i64> noundef %1) #3 {
  %3 = alloca <2 x i64>, align 16
  %4 = alloca <2 x i64>, align 16
  store <2 x i64> %0, ptr %3, align 16, !tbaa !11
  store <2 x i64> %1, ptr %4, align 16, !tbaa !11
  %5 = load <2 x i64>, ptr %3, align 16, !tbaa !11
  %6 = load <2 x i64>, ptr %4, align 16, !tbaa !11
  %7 = and <2 x i64> %5, %6
  ret <2 x i64> %7
}

; Function Attrs: alwaysinline nounwind uwtable
define internal <2 x i64> @_mm_loadu_si128(ptr noundef %0) #3 {
  %2 = alloca ptr, align 8
  store ptr %0, ptr %2, align 8, !tbaa !3
  %3 = load ptr, ptr %2, align 8, !tbaa !3
  %4 = getelementptr inbounds nuw %struct.__loadu_si128, ptr %3, i32 0, i32 0
  %5 = load <2 x i64>, ptr %4, align 1, !tbaa !11
  ret <2 x i64> %5
}

; Function Attrs: alwaysinline nounwind uwtable
define internal <2 x i64> @_mm_set1_epi32(i32 noundef %0) #3 {
  %2 = alloca i32, align 4
  store i32 %0, ptr %2, align 4, !tbaa !9
  %3 = load i32, ptr %2, align 4, !tbaa !9
  %4 = load i32, ptr %2, align 4, !tbaa !9
  %5 = load i32, ptr %2, align 4, !tbaa !9
  %6 = load i32, ptr %2, align 4, !tbaa !9
  %7 = call <2 x i64> @_mm_set_epi32(i32 noundef %3, i32 noundef %4, i32 noundef %5, i32 noundef %6)
  ret <2 x i64> %7
}

; Function Attrs: nounwind uwtable
define internal void @TransformColor_SSE2(ptr noalias noundef %0, ptr noalias noundef %1, i32 noundef %2) #1 {
  %4 = alloca ptr, align 8
  %5 = alloca ptr, align 8
  %6 = alloca i32, align 4
  %7 = alloca <2 x i64>, align 16
  %8 = alloca <2 x i64>, align 16
  %9 = alloca <2 x i64>, align 16
  %10 = alloca <2 x i64>, align 16
  %11 = alloca i32, align 4
  %12 = alloca <2 x i64>, align 16
  %13 = alloca <2 x i64>, align 16
  %14 = alloca <2 x i64>, align 16
  %15 = alloca <2 x i64>, align 16
  %16 = alloca <2 x i64>, align 16
  %17 = alloca <2 x i64>, align 16
  %18 = alloca <2 x i64>, align 16
  %19 = alloca <2 x i64>, align 16
  %20 = alloca <2 x i64>, align 16
  %21 = alloca <2 x i64>, align 16
  %22 = alloca <2 x i64>, align 16
  store ptr %0, ptr %4, align 8, !tbaa !3
  store ptr %1, ptr %5, align 8, !tbaa !7
  store i32 %2, ptr %6, align 4, !tbaa !9
  call void @llvm.lifetime.start.p0(i64 16, ptr %7) #9
  %23 = load ptr, ptr %4, align 8, !tbaa !3
  %24 = getelementptr inbounds nuw %struct.VP8LMultipliers, ptr %23, i32 0, i32 0
  %25 = load i8, ptr %24, align 1, !tbaa !14
  %26 = zext i8 %25 to i16
  %27 = zext i16 %26 to i32
  %28 = shl i32 %27, 8
  %29 = trunc i32 %28 to i16
  %30 = sext i16 %29 to i32
  %31 = ashr i32 %30, 5
  %32 = shl i32 %31, 16
  %33 = load ptr, ptr %4, align 8, !tbaa !3
  %34 = getelementptr inbounds nuw %struct.VP8LMultipliers, ptr %33, i32 0, i32 1
  %35 = load i8, ptr %34, align 1, !tbaa !16
  %36 = zext i8 %35 to i16
  %37 = zext i16 %36 to i32
  %38 = shl i32 %37, 8
  %39 = trunc i32 %38 to i16
  %40 = sext i16 %39 to i32
  %41 = ashr i32 %40, 5
  %42 = and i32 %41, 65535
  %43 = or i32 %32, %42
  %44 = call <2 x i64> @_mm_set1_epi32(i32 noundef %43)
  store <2 x i64> %44, ptr %7, align 16, !tbaa !11
  call void @llvm.lifetime.start.p0(i64 16, ptr %8) #9
  %45 = load ptr, ptr %4, align 8, !tbaa !3
  %46 = getelementptr inbounds nuw %struct.VP8LMultipliers, ptr %45, i32 0, i32 2
  %47 = load i8, ptr %46, align 1, !tbaa !17
  %48 = zext i8 %47 to i16
  %49 = zext i16 %48 to i32
  %50 = shl i32 %49, 8
  %51 = trunc i32 %50 to i16
  %52 = sext i16 %51 to i32
  %53 = ashr i32 %52, 5
  %54 = shl i32 %53, 16
  %55 = or i32 %54, 0
  %56 = call <2 x i64> @_mm_set1_epi32(i32 noundef %55)
  store <2 x i64> %56, ptr %8, align 16, !tbaa !11
  call void @llvm.lifetime.start.p0(i64 16, ptr %9) #9
  %57 = call <2 x i64> @_mm_set1_epi32(i32 noundef -16711936)
  store <2 x i64> %57, ptr %9, align 16, !tbaa !11
  call void @llvm.lifetime.start.p0(i64 16, ptr %10) #9
  %58 = call <2 x i64> @_mm_set1_epi32(i32 noundef 16711935)
  store <2 x i64> %58, ptr %10, align 16, !tbaa !11
  call void @llvm.lifetime.start.p0(i64 4, ptr %11) #9
  store i32 0, ptr %11, align 4, !tbaa !9
  br label %59

59:                                               ; preds = %105, %3
  %60 = load i32, ptr %11, align 4, !tbaa !9
  %61 = add nsw i32 %60, 4
  %62 = load i32, ptr %6, align 4, !tbaa !9
  %63 = icmp sle i32 %61, %62
  br i1 %63, label %64, label %108

64:                                               ; preds = %59
  call void @llvm.lifetime.start.p0(i64 16, ptr %12) #9
  %65 = load ptr, ptr %5, align 8, !tbaa !7
  %66 = load i32, ptr %11, align 4, !tbaa !9
  %67 = sext i32 %66 to i64
  %68 = getelementptr inbounds i32, ptr %65, i64 %67
  %69 = call <2 x i64> @_mm_loadu_si128(ptr noundef %68)
  store <2 x i64> %69, ptr %12, align 16, !tbaa !11
  call void @llvm.lifetime.start.p0(i64 16, ptr %13) #9
  %70 = load <2 x i64>, ptr %12, align 16, !tbaa !11
  %71 = load <2 x i64>, ptr %9, align 16, !tbaa !11
  %72 = call <2 x i64> @_mm_and_si128(<2 x i64> noundef %70, <2 x i64> noundef %71)
  store <2 x i64> %72, ptr %13, align 16, !tbaa !11
  call void @llvm.lifetime.start.p0(i64 16, ptr %14) #9
  %73 = load <2 x i64>, ptr %13, align 16, !tbaa !11
  %74 = bitcast <2 x i64> %73 to <8 x i16>
  %75 = shufflevector <8 x i16> %74, <8 x i16> poison, <8 x i32> <i32 0, i32 0, i32 2, i32 2, i32 4, i32 5, i32 6, i32 7>
  %76 = bitcast <8 x i16> %75 to <2 x i64>
  store <2 x i64> %76, ptr %14, align 16, !tbaa !11
  call void @llvm.lifetime.start.p0(i64 16, ptr %15) #9
  %77 = load <2 x i64>, ptr %14, align 16, !tbaa !11
  %78 = bitcast <2 x i64> %77 to <8 x i16>
  %79 = shufflevector <8 x i16> %78, <8 x i16> poison, <8 x i32> <i32 0, i32 1, i32 2, i32 3, i32 4, i32 4, i32 6, i32 6>
  %80 = bitcast <8 x i16> %79 to <2 x i64>
  store <2 x i64> %80, ptr %15, align 16, !tbaa !11
  call void @llvm.lifetime.start.p0(i64 16, ptr %16) #9
  %81 = load <2 x i64>, ptr %15, align 16, !tbaa !11
  %82 = load <2 x i64>, ptr %7, align 16, !tbaa !11
  %83 = call <2 x i64> @_mm_mulhi_epi16(<2 x i64> noundef %81, <2 x i64> noundef %82)
  store <2 x i64> %83, ptr %16, align 16, !tbaa !11
  call void @llvm.lifetime.start.p0(i64 16, ptr %17) #9
  %84 = load <2 x i64>, ptr %12, align 16, !tbaa !11
  %85 = call <2 x i64> @_mm_slli_epi16(<2 x i64> noundef %84, i32 noundef 8)
  store <2 x i64> %85, ptr %17, align 16, !tbaa !11
  call void @llvm.lifetime.start.p0(i64 16, ptr %18) #9
  %86 = load <2 x i64>, ptr %17, align 16, !tbaa !11
  %87 = load <2 x i64>, ptr %8, align 16, !tbaa !11
  %88 = call <2 x i64> @_mm_mulhi_epi16(<2 x i64> noundef %86, <2 x i64> noundef %87)
  store <2 x i64> %88, ptr %18, align 16, !tbaa !11
  call void @llvm.lifetime.start.p0(i64 16, ptr %19) #9
  %89 = load <2 x i64>, ptr %18, align 16, !tbaa !11
  %90 = call <2 x i64> @_mm_srli_epi32(<2 x i64> noundef %89, i32 noundef 16)
  store <2 x i64> %90, ptr %19, align 16, !tbaa !11
  call void @llvm.lifetime.start.p0(i64 16, ptr %20) #9
  %91 = load <2 x i64>, ptr %19, align 16, !tbaa !11
  %92 = load <2 x i64>, ptr %16, align 16, !tbaa !11
  %93 = call <2 x i64> @_mm_add_epi8(<2 x i64> noundef %91, <2 x i64> noundef %92)
  store <2 x i64> %93, ptr %20, align 16, !tbaa !11
  call void @llvm.lifetime.start.p0(i64 16, ptr %21) #9
  %94 = load <2 x i64>, ptr %20, align 16, !tbaa !11
  %95 = load <2 x i64>, ptr %10, align 16, !tbaa !11
  %96 = call <2 x i64> @_mm_and_si128(<2 x i64> noundef %94, <2 x i64> noundef %95)
  store <2 x i64> %96, ptr %21, align 16, !tbaa !11
  call void @llvm.lifetime.start.p0(i64 16, ptr %22) #9
  %97 = load <2 x i64>, ptr %12, align 16, !tbaa !11
  %98 = load <2 x i64>, ptr %21, align 16, !tbaa !11
  %99 = call <2 x i64> @_mm_sub_epi8(<2 x i64> noundef %97, <2 x i64> noundef %98)
  store <2 x i64> %99, ptr %22, align 16, !tbaa !11
  %100 = load ptr, ptr %5, align 8, !tbaa !7
  %101 = load i32, ptr %11, align 4, !tbaa !9
  %102 = sext i32 %101 to i64
  %103 = getelementptr inbounds i32, ptr %100, i64 %102
  %104 = load <2 x i64>, ptr %22, align 16, !tbaa !11
  call void @_mm_storeu_si128(ptr noundef %103, <2 x i64> noundef %104)
  call void @llvm.lifetime.end.p0(i64 16, ptr %22) #9
  call void @llvm.lifetime.end.p0(i64 16, ptr %21) #9
  call void @llvm.lifetime.end.p0(i64 16, ptr %20) #9
  call void @llvm.lifetime.end.p0(i64 16, ptr %19) #9
  call void @llvm.lifetime.end.p0(i64 16, ptr %18) #9
  call void @llvm.lifetime.end.p0(i64 16, ptr %17) #9
  call void @llvm.lifetime.end.p0(i64 16, ptr %16) #9
  call void @llvm.lifetime.end.p0(i64 16, ptr %15) #9
  call void @llvm.lifetime.end.p0(i64 16, ptr %14) #9
  call void @llvm.lifetime.end.p0(i64 16, ptr %13) #9
  call void @llvm.lifetime.end.p0(i64 16, ptr %12) #9
  br label %105

105:                                              ; preds = %64
  %106 = load i32, ptr %11, align 4, !tbaa !9
  %107 = add nsw i32 %106, 4
  store i32 %107, ptr %11, align 4, !tbaa !9
  br label %59, !llvm.loop !18

108:                                              ; preds = %59
  %109 = load i32, ptr %11, align 4, !tbaa !9
  %110 = load i32, ptr %6, align 4, !tbaa !9
  %111 = icmp ne i32 %109, %110
  br i1 %111, label %112, label %121

112:                                              ; preds = %108
  %113 = load ptr, ptr %4, align 8, !tbaa !3
  %114 = load ptr, ptr %5, align 8, !tbaa !7
  %115 = load i32, ptr %11, align 4, !tbaa !9
  %116 = sext i32 %115 to i64
  %117 = getelementptr inbounds i32, ptr %114, i64 %116
  %118 = load i32, ptr %6, align 4, !tbaa !9
  %119 = load i32, ptr %11, align 4, !tbaa !9
  %120 = sub nsw i32 %118, %119
  call void @VP8LTransformColor_C(ptr noundef %113, ptr noundef %117, i32 noundef %120)
  br label %121

121:                                              ; preds = %112, %108
  call void @llvm.lifetime.end.p0(i64 4, ptr %11) #9
  call void @llvm.lifetime.end.p0(i64 16, ptr %10) #9
  call void @llvm.lifetime.end.p0(i64 16, ptr %9) #9
  call void @llvm.lifetime.end.p0(i64 16, ptr %8) #9
  call void @llvm.lifetime.end.p0(i64 16, ptr %7) #9
  ret void
}