; Function Attrs: nounwind uwtable
define internal void @TransformColor_SSE2(ptr noalias noundef %0, ptr noalias noundef %1, i32 noundef %2) #1 {
  %.not36 = icmp slt i32 %2, 4
  br i1 %.not36, label %._crit_edge, label %.lr.ph

.lr.ph:                                           ; preds = %3
  %4 = getelementptr inbounds nuw i8, ptr %0, i64 2
  %5 = load i8, ptr %4, align 1, !tbaa !10
  %6 = zext i8 %5 to i16
  %7 = shl nuw i16 %6, 8
  %8 = ashr exact i16 %7, 5
  %9 = sext i16 %8 to i32
  %10 = shl nsw i32 %9, 16
  %11 = insertelement <4 x i32> poison, i32 %10, i64 0
  %12 = shufflevector <4 x i32> %11, <4 x i32> poison, <4 x i32> zeroinitializer
  %13 = load i8, ptr %0, align 1, !tbaa !12
  %14 = zext i8 %13 to i16
  %15 = shl nuw i16 %14, 8
  %16 = ashr exact i16 %15, 5
  %17 = sext i16 %16 to i32
  %18 = shl nsw i32 %17, 16
  %19 = getelementptr inbounds nuw i8, ptr %0, i64 1
  %20 = load i8, ptr %19, align 1, !tbaa !13
  %21 = zext i8 %20 to i16
  %22 = shl nuw i16 %21, 8
  %23 = ashr exact i16 %22, 5
  %24 = zext i16 %23 to i32
  %25 = or disjoint i32 %18, %24
  %26 = insertelement <4 x i32> poison, i32 %25, i64 0
  %27 = shufflevector <4 x i32> %26, <4 x i32> poison, <4 x i32> zeroinitializer
  %28 = bitcast <4 x i32> %27 to <8 x i16>
  %29 = bitcast <4 x i32> %12 to <8 x i16>
  %30 = zext nneg i32 %2 to i64
  br label %31

31:                                               ; preds = %.lr.ph, %31
  %indvars.iv38 = phi i64 [ 0, %.lr.ph ], [ %indvars.iv.next39, %31 ]
  %indvars.iv = phi i64 [ 4, %.lr.ph ], [ %indvars.iv.next, %31 ]
  %32 = getelementptr inbounds nuw i32, ptr %1, i64 %indvars.iv38
  %33 = load <2 x i64>, ptr %32, align 1, !tbaa !7
  %34 = bitcast <2 x i64> %33 to <8 x i16>
  %35 = and <8 x i16> %34, <i16 -256, i16 poison, i16 -256, i16 poison, i16 -256, i16 poison, i16 -256, i16 poison>
  %36 = shufflevector <8 x i16> %35, <8 x i16> poison, <8 x i32> <i32 0, i32 0, i32 2, i32 2, i32 4, i32 4, i32 6, i32 6>
  %37 = tail call <8 x i16> @llvm.x86.sse2.pmulh.w(<8 x i16> %36, <8 x i16> %28)
  %38 = shl <8 x i16> %34, splat (i16 8)
  %39 = tail call <8 x i16> @llvm.x86.sse2.pmulh.w(<8 x i16> %38, <8 x i16> %29)
  %40 = bitcast <8 x i16> %39 to <4 x i32>
  %41 = lshr <4 x i32> %40, splat (i32 16)
  %42 = bitcast <4 x i32> %41 to <16 x i8>
  %43 = bitcast <8 x i16> %37 to <16 x i8>
  %44 = add <16 x i8> %42, %43
  %45 = bitcast <2 x i64> %33 to <16 x i8>
  %46 = and <16 x i8> %44, <i8 -1, i8 0, i8 -1, i8 0, i8 -1, i8 0, i8 -1, i8 0, i8 -1, i8 0, i8 -1, i8 0, i8 -1, i8 0, i8 -1, i8 0>
  %47 = sub <16 x i8> %45, %46
  store <16 x i8> %47, ptr %32, align 1, !tbaa !7
  %indvars.iv.next = add nuw nsw i64 %indvars.iv, 4
  %.not = icmp samesign ugt i64 %indvars.iv.next, %30
  %indvars.iv.next39 = add nuw nsw i64 %indvars.iv38, 4
  br i1 %.not, label %._crit_edge.loopexit, label %31, !llvm.loop !14

._crit_edge.loopexit:                             ; preds = %31
  %48 = trunc nuw nsw i64 %indvars.iv to i32
  br label %._crit_edge

._crit_edge:                                      ; preds = %._crit_edge.loopexit, %3
  %.0.lcssa = phi i32 [ 0, %3 ], [ %48, %._crit_edge.loopexit ]
  %.not35 = icmp eq i32 %.0.lcssa, %2
  br i1 %.not35, label %53, label %49

49:                                               ; preds = %._crit_edge
  %50 = zext nneg i32 %.0.lcssa to i64
  %51 = getelementptr inbounds nuw i32, ptr %1, i64 %50
  %52 = sub nsw i32 %2, %.0.lcssa
  tail call void @VP8LTransformColor_C(ptr noundef nonnull %0, ptr noundef %51, i32 noundef %52) #8
  br label %53

53:                                               ; preds = %49, %._crit_edge
  ret void
}